(dp1
S'info@keencorp.com'
p2
S'2018-09-14T10:56:23'
p3
sS'fmarsman@keencorp.com'
p4
S'2018-09-17T15:04:29'
p5
sS'edeboer@keencorp.com'
p6
S'2018-09-17T14:48:43'
p7
sS'pvisscher@keencorp.com'
p8
S'2018-09-17T16:20:28'
p9
sS'afastow@keencorp.com'
p10
S'2018-09-17T19:02:12'
p11
sS'hmannak@keencorp.com'
p12
S'2018-09-16T20:40:15'
p13
sS'mmooij@keencorp.com'
p14
S'2018-09-17T12:17:50'
p15
sS'jsteeman@keencorp.com'
p16
S'2018-09-13T08:43:00'
p17
sS'vmirovic@keencorp.com'
p18
S'2018-09-06T18:02:16'
p19
sS'bjakic@keencorp.com'
p20
S'2018-09-13T14:22:09'
p21
sS'hhemels@keencorp.com'
p22
S'2018-09-17T11:51:58'
p23
sS'jpvanlin@keencorp.com'
p24
S'2018-09-17T14:24:40'
p25
s.